; ModuleID = 'source-C-CXX/28/72.c'
source_filename = "source-C-CXX/28/72.c"
target datalayout = "e-m:e-p270:32:32-p271:32:32-p272:64:64-i64:64-f80:128-n8:16:32:64-S128"
target triple = "x86_64-pc-linux-gnu"

@.str = private unnamed_addr constant [3 x i8] c"%d\00", align 1
@.str.1 = private unnamed_addr constant [7 x i8] c"%.3lf\0A\00", align 1

; Function Attrs: nofree nosync nounwind readnone sspstrong uwtable
define dso_local i32 @fbnq(i32 %0) local_unnamed_addr #0 {
  br label %2

2:                                                ; preds = %6, %1
  %3 = phi i32 [ 0, %1 ], [ %10, %6 ]
  %4 = phi i32 [ %0, %1 ], [ %9, %6 ]
  %5 = icmp ult i32 %4, 2
  br i1 %5, label %11, label %6

6:                                                ; preds = %2
  %7 = add nsw i32 %4, -1
  %8 = tail call i32 @fbnq(i32 %7)
  %9 = add nsw i32 %4, -2
  %10 = add nsw i32 %8, %3
  br label %2

11:                                               ; preds = %2
  %12 = add nsw i32 %4, %3
  ret i32 %12
}

; Function Attrs: nofree nounwind sspstrong uwtable
define dso_local i32 @main(i32 %0, i8** nocapture readnone %1) local_unnamed_addr #1 {
  %3 = alloca i32, align 4
  %4 = alloca i32, align 4
  %5 = bitcast i32* %3 to i8*
  call void @llvm.lifetime.start.p0i8(i64 4, i8* nonnull %5) #4
  %6 = bitcast i32* %4 to i8*
  call void @llvm.lifetime.start.p0i8(i64 4, i8* nonnull %6) #4
  %7 = call i32 (i8*, ...) @__isoc99_scanf(i8* getelementptr inbounds ([3 x i8], [3 x i8]* @.str, i64 0, i64 0), i32* nonnull %3)
  %8 = load i32, i32* %3, align 4, !tbaa !5
  %9 = icmp sgt i32 %8, 0
  br i1 %9, label %10, label %34

10:                                               ; preds = %2, %28
  %11 = phi i32 [ %31, %28 ], [ 0, %2 ]
  %12 = call i32 (i8*, ...) @__isoc99_scanf(i8* getelementptr inbounds ([3 x i8], [3 x i8]* @.str, i64 0, i64 0), i32* nonnull %4)
  %13 = load i32, i32* %4, align 4, !tbaa !5
  %14 = icmp sgt i32 %13, 0
  br i1 %14, label %15, label %28

15:                                               ; preds = %10, %15
  %16 = phi double [ %25, %15 ], [ 0.000000e+00, %10 ]
  %17 = phi i32 [ %26, %15 ], [ 0, %10 ]
  %18 = add nuw nsw i32 %17, 3
  %19 = call i32 @fbnq(i32 %18)
  %20 = sitofp i32 %19 to double
  %21 = add nuw nsw i32 %17, 2
  %22 = call i32 @fbnq(i32 %21)
  %23 = sitofp i32 %22 to double
  %24 = fdiv double %20, %23
  %25 = fadd double %16, %24
  %26 = add nuw nsw i32 %17, 1
  %27 = icmp eq i32 %26, %13
  br i1 %27, label %28, label %15, !llvm.loop !9

28:                                               ; preds = %15, %10
  %29 = phi double [ 0.000000e+00, %10 ], [ %25, %15 ]
  %30 = call i32 (i8*, ...) @printf(i8* nonnull dereferenceable(1) getelementptr inbounds ([7 x i8], [7 x i8]* @.str.1, i64 0, i64 0), double %29)
  %31 = add nuw nsw i32 %11, 1
  %32 = load i32, i32* %3, align 4, !tbaa !5
  %33 = icmp slt i32 %31, %32
  br i1 %33, label %10, label %34, !llvm.loop !11

34:                                               ; preds = %28, %2
  call void @llvm.lifetime.end.p0i8(i64 4, i8* nonnull %6) #4
  call void @llvm.lifetime.end.p0i8(i64 4, i8* nonnull %5) #4
  ret i32 0
}

; Function Attrs: argmemonly mustprogress nofree nosync nounwind willreturn
declare void @llvm.lifetime.start.p0i8(i64 immarg, i8* nocapture) #2

; Function Attrs: nofree nounwind
declare noundef i32 @__isoc99_scanf(i8* nocapture noundef readonly, ...) local_unnamed_addr #3

; Function Attrs: nofree nounwind
declare noundef i32 @printf(i8* nocapture noundef readonly, ...) local_unnamed_addr #3

; Function Attrs: argmemonly mustprogress nofree nosync nounwind willreturn
declare void @llvm.lifetime.end.p0i8(i64 immarg, i8* nocapture) #2


!llvm.module.flags = !{!0, !1, !2, !3}
!llvm.ident = !{!4}

!0 = !{i32 1, !"wchar_size", i32 4}
!1 = !{i32 7, !"PIC Level", i32 2}
!2 = !{i32 7, !"PIE Level", i32 2}
!3 = !{i32 7, !"uwtable", i32 1}
!4 = !{!"clang version 13.0.0"}
!5 = !{!6, !6, i64 0}
!6 = !{!"int", !7, i64 0}
!7 = !{!"omnipotent char", !8, i64 0}
!8 = !{!"Simple C/C++ TBAA"}
!9 = distinct !{!9, !10}
!10 = !{!"llvm.loop.mustprogress"}
!11 = distinct !{!11, !10}
